; Function Attrs: nounwind uwtable
define noalias ptr @l_Array_foldlMUnsafe_fold___at_Lean_Compiler_LCNF_JoinPointCommonArgs_reduce_goAnalyzeFunDecl___spec__5___boxed(ptr noundef %0, ptr noundef %1, ptr noundef %2, ptr noundef %3, ptr noundef %4, ptr noundef %5, ptr noundef %6, ptr noundef %7, ptr noundef %8, ptr noundef %9, ptr noundef %10, ptr noundef %11) #1 {
  %13 = getelementptr i8, ptr %1, i64 8
  %.val51 = load i64, ptr %13, align 8, !tbaa !12
  %14 = ptrtoint ptr %1 to i64
  %15 = and i64 %14, 1
  %.not = icmp eq i64 %15, 0
  br i1 %.not, label %16, label %lean_dec.exit32

16:                                               ; preds = %12
  %17 = load i32, ptr %1, align 4, !tbaa !8
  %18 = icmp sgt i32 %17, 1
  br i1 %18, label %19, label %21, !prof !11

19:                                               ; preds = %16
  %20 = add nsw i32 %17, -1
  store i32 %20, ptr %1, align 4, !tbaa !8
  br label %lean_dec.exit32

21:                                               ; preds = %16
  %.not.i = icmp eq i32 %17, 0
  br i1 %.not.i, label %lean_dec.exit32, label %22

22:                                               ; preds = %21
  tail call void @lean_dec_ref_cold(ptr noundef nonnull %1) #5
  br label %lean_dec.exit32

lean_dec.exit32:                                  ; preds = %22, %21, %19, %12
  %23 = getelementptr i8, ptr %2, i64 8
  %.val = load i64, ptr %23, align 8, !tbaa !12
  %24 = ptrtoint ptr %2 to i64
  %25 = and i64 %24, 1
  %.not52 = icmp eq i64 %25, 0
  br i1 %.not52, label %26, label %lean_dec.exit31

26:                                               ; preds = %lean_dec.exit32
  %27 = load i32, ptr %2, align 4, !tbaa !8
  %28 = icmp sgt i32 %27, 1
  br i1 %28, label %29, label %31, !prof !11

29:                                               ; preds = %26
  %30 = add nsw i32 %27, -1
  store i32 %30, ptr %2, align 4, !tbaa !8
  br label %lean_dec.exit31

31:                                               ; preds = %26
  %.not.i33 = icmp eq i32 %27, 0
  br i1 %.not.i33, label %lean_dec.exit31, label %32

32:                                               ; preds = %31
  tail call void @lean_dec_ref_cold(ptr noundef nonnull %2) #5
  br label %lean_dec.exit31

lean_dec.exit31:                                  ; preds = %32, %31, %29, %lean_dec.exit32
  %33 = tail call ptr @l_Array_foldlMUnsafe_fold___at_Lean_Compiler_LCNF_JoinPointCommonArgs_reduce_goAnalyzeFunDecl___spec__5(ptr noundef %0, i64 noundef %.val51, i64 noundef %.val, ptr noundef %3, ptr poison, ptr poison, ptr noundef %6, ptr noundef %7, ptr noundef %8, ptr noundef %9, ptr noundef %10, ptr noundef %11)
  %34 = ptrtoint ptr %10 to i64
  %35 = and i64 %34, 1
  %.not53 = icmp eq i64 %35, 0
  br i1 %.not53, label %36, label %lean_dec.exit30

36:                                               ; preds = %lean_dec.exit31
  %37 = load i32, ptr %10, align 4, !tbaa !8
  %38 = icmp sgt i32 %37, 1
  br i1 %38, label %39, label %41, !prof !11

39:                                               ; preds = %36
  %40 = add nsw i32 %37, -1
  store i32 %40, ptr %10, align 4, !tbaa !8
  br label %lean_dec.exit30

41:                                               ; preds = %36
  %.not.i35 = icmp eq i32 %37, 0
  br i1 %.not.i35, label %lean_dec.exit30, label %42

42:                                               ; preds = %41
  tail call void @lean_dec_ref_cold(ptr noundef nonnull %10) #5
  br label %lean_dec.exit30

lean_dec.exit30:                                  ; preds = %42, %41, %39, %lean_dec.exit31
  %43 = ptrtoint ptr %9 to i64
  %44 = and i64 %43, 1
  %.not54 = icmp eq i64 %44, 0
  br i1 %.not54, label %45, label %lean_dec.exit29

45:                                               ; preds = %lean_dec.exit30
  %46 = load i32, ptr %9, align 4, !tbaa !8
  %47 = icmp sgt i32 %46, 1
  br i1 %47, label %48, label %50, !prof !11

48:                                               ; preds = %45
  %49 = add nsw i32 %46, -1
  store i32 %49, ptr %9, align 4, !tbaa !8
  br label %lean_dec.exit29

50:                                               ; preds = %45
  %.not.i37 = icmp eq i32 %46, 0
  br i1 %.not.i37, label %lean_dec.exit29, label %51

51:                                               ; preds = %50
  tail call void @lean_dec_ref_cold(ptr noundef nonnull %9) #5
  br label %lean_dec.exit29

lean_dec.exit29:                                  ; preds = %51, %50, %48, %lean_dec.exit30
  %52 = ptrtoint ptr %8 to i64
  %53 = and i64 %52, 1
  %.not55 = icmp eq i64 %53, 0
  br i1 %.not55, label %54, label %lean_dec.exit28

54:                                               ; preds = %lean_dec.exit29
  %55 = load i32, ptr %8, align 4, !tbaa !8
  %56 = icmp sgt i32 %55, 1
  br i1 %56, label %57, label %59, !prof !11

57:                                               ; preds = %54
  %58 = add nsw i32 %55, -1
  store i32 %58, ptr %8, align 4, !tbaa !8
  br label %lean_dec.exit28

59:                                               ; preds = %54
  %.not.i39 = icmp eq i32 %55, 0
  br i1 %.not.i39, label %lean_dec.exit28, label %60

60:                                               ; preds = %59
  tail call void @lean_dec_ref_cold(ptr noundef nonnull %8) #5
  br label %lean_dec.exit28

lean_dec.exit28:                                  ; preds = %60, %59, %57, %lean_dec.exit29
  %61 = ptrtoint ptr %7 to i64
  %62 = and i64 %61, 1
  %.not56 = icmp eq i64 %62, 0
  br i1 %.not56, label %63, label %lean_dec.exit27

63:                                               ; preds = %lean_dec.exit28
  %64 = load i32, ptr %7, align 4, !tbaa !8
  %65 = icmp sgt i32 %64, 1
  br i1 %65, label %66, label %68, !prof !11

66:                                               ; preds = %63
  %67 = add nsw i32 %64, -1
  store i32 %67, ptr %7, align 4, !tbaa !8
  br label %lean_dec.exit27

68:                                               ; preds = %63
  %.not.i41 = icmp eq i32 %64, 0
  br i1 %.not.i41, label %lean_dec.exit27, label %69

69:                                               ; preds = %68
  tail call void @lean_dec_ref_cold(ptr noundef nonnull %7) #5
  br label %lean_dec.exit27

lean_dec.exit27:                                  ; preds = %69, %68, %66, %lean_dec.exit28
  %70 = ptrtoint ptr %6 to i64
  %71 = and i64 %70, 1
  %.not57 = icmp eq i64 %71, 0
  br i1 %.not57, label %72, label %lean_dec.exit26

72:                                               ; preds = %lean_dec.exit27
  %73 = load i32, ptr %6, align 4, !tbaa !8
  %74 = icmp sgt i32 %73, 1
  br i1 %74, label %75, label %77, !prof !11

75:                                               ; preds = %72
  %76 = add nsw i32 %73, -1
  store i32 %76, ptr %6, align 4, !tbaa !8
  br label %lean_dec.exit26

77:                                               ; preds = %72
  %.not.i43 = icmp eq i32 %73, 0
  br i1 %.not.i43, label %lean_dec.exit26, label %78

78:                                               ; preds = %77
  tail call void @lean_dec_ref_cold(ptr noundef nonnull %6) #5
  br label %lean_dec.exit26

lean_dec.exit26:                                  ; preds = %78, %77, %75, %lean_dec.exit27
  %79 = ptrtoint ptr %5 to i64
  %80 = and i64 %79, 1
  %.not58 = icmp eq i64 %80, 0
  br i1 %.not58, label %81, label %lean_dec.exit25

81:                                               ; preds = %lean_dec.exit26
  %82 = load i32, ptr %5, align 4, !tbaa !8
  %83 = icmp sgt i32 %82, 1
  br i1 %83, label %84, label %86, !prof !11

84:                                               ; preds = %81
  %85 = add nsw i32 %82, -1
  store i32 %85, ptr %5, align 4, !tbaa !8
  br label %lean_dec.exit25

86:                                               ; preds = %81
  %.not.i45 = icmp eq i32 %82, 0
  br i1 %.not.i45, label %lean_dec.exit25, label %87

87:                                               ; preds = %86
  tail call void @lean_dec_ref_cold(ptr noundef nonnull %5) #5
  br label %lean_dec.exit25

lean_dec.exit25:                                  ; preds = %87, %86, %84, %lean_dec.exit26
  %88 = ptrtoint ptr %4 to i64
  %89 = and i64 %88, 1
  %.not59 = icmp eq i64 %89, 0
  br i1 %.not59, label %90, label %lean_dec.exit24

90:                                               ; preds = %lean_dec.exit25
  %91 = load i32, ptr %4, align 4, !tbaa !8
  %92 = icmp sgt i32 %91, 1
  br i1 %92, label %93, label %95, !prof !11

93:                                               ; preds = %90
  %94 = add nsw i32 %91, -1
  store i32 %94, ptr %4, align 4, !tbaa !8
  br label %lean_dec.exit24

95:                                               ; preds = %90
  %.not.i47 = icmp eq i32 %91, 0
  br i1 %.not.i47, label %lean_dec.exit24, label %96

96:                                               ; preds = %95
  tail call void @lean_dec_ref_cold(ptr noundef nonnull %4) #5
  br label %lean_dec.exit24

lean_dec.exit24:                                  ; preds = %96, %95, %93, %lean_dec.exit25
  %97 = ptrtoint ptr %0 to i64
  %98 = and i64 %97, 1
  %.not60 = icmp eq i64 %98, 0
  br i1 %.not60, label %99, label %lean_dec.exit

99:                                               ; preds = %lean_dec.exit24
  %100 = load i32, ptr %0, align 4, !tbaa !8
  %101 = icmp sgt i32 %100, 1
  br i1 %101, label %102, label %104, !prof !11

102:                                              ; preds = %99
  %103 = add nsw i32 %100, -1
  store i32 %103, ptr %0, align 4, !tbaa !8
  br label %lean_dec.exit

104:                                              ; preds = %99
  %.not.i49 = icmp eq i32 %100, 0
  br i1 %.not.i49, label %lean_dec.exit, label %105

105:                                              ; preds = %104
  tail call void @lean_dec_ref_cold(ptr noundef nonnull %0) #5
  br label %lean_dec.exit

lean_dec.exit:                                    ; preds = %105, %104, %102, %lean_dec.exit24
  ret ptr %33
}